; Function Attrs: mustprogress nounwind uwtable
define hidden void @_ZN8ZWorkers3runEP5ZTask(ptr noundef nonnull align 8 dereferenceable(184) %0, ptr noundef %1) local_unnamed_addr #0 align 2 {
  %3 = load volatile ptr, ptr getelementptr inbounds (i8, ptr @_ZN16LogTagSetMappingILN6LogTag4typeE49ELS1_158ELS1_0ELS1_0ELS1_0ELS1_0EE7_tagsetE, i64 56), align 8
  %.not = icmp eq ptr %3, null
  br i1 %.not, label %_ZN7ZLockerI5ZLockED2Ev.exit5, label %4

4:                                                ; preds = %2
  %5 = tail call noundef ptr @_ZNK5ZTask4nameEv(ptr noundef nonnull align 8 dereferenceable(40) %1) #8
  %6 = getelementptr inbounds i8, ptr %0, i64 8
  %7 = load ptr, ptr %6, align 8
  %8 = getelementptr inbounds i8, ptr %0, i64 32
  %9 = load i32, ptr %8, align 8
  tail call void (ptr, ...) @_ZN7LogImplILN6LogTag4typeE49ELS1_158ELS1_0ELS1_0ELS1_0ELS1_0EE5writeILN8LogLevel4typeE2EEEvPKcz(ptr noundef nonnull @.str.8, ptr noundef %5, ptr noundef %7, i32 noundef %9)
  br label %_ZN7ZLockerI5ZLockED2Ev.exit5

_ZN7ZLockerI5ZLockED2Ev.exit5:                    ; preds = %2, %4
  %10 = getelementptr inbounds i8, ptr %0, i64 128
  %11 = tail call i32 @pthread_mutex_lock(ptr noundef nonnull %10) #8
  %12 = getelementptr inbounds i8, ptr %0, i64 176
  %13 = load ptr, ptr %12, align 8
  %14 = getelementptr inbounds i8, ptr %0, i64 32
  %15 = load i32, ptr %14, align 8
  tail call void @_ZN12ZStatWorkers8at_startEj(ptr noundef nonnull align 8 dereferenceable(96) %13, i32 noundef %15) #8
  %16 = tail call i32 @pthread_mutex_unlock(ptr noundef nonnull %10) #8
  %17 = tail call noundef ptr @_ZN5ZTask11worker_taskEv(ptr noundef nonnull align 8 dereferenceable(40) %1) #8
  tail call void @_ZN13WorkerThreads8run_taskEP10WorkerTask(ptr noundef nonnull align 8 dereferenceable(120) %0, ptr noundef %17) #8
  %18 = tail call i32 @pthread_mutex_lock(ptr noundef nonnull %10) #8
  %19 = load ptr, ptr %12, align 8
  tail call void @_ZN12ZStatWorkers6at_endEv(ptr noundef nonnull align 8 dereferenceable(96) %19) #8
  %20 = tail call i32 @pthread_mutex_unlock(ptr noundef nonnull %10) #8
  ret void
}